target datalayout = "e-m:e-p270:32:32-p271:32:32-p272:64:64-i64:64-i128:128-f80:128-n8:16:32:64-S128"
target triple = "x86_64-pc-linux-gnu"

%"class.std::__shared_count" = type { ptr }
%"class.std::shared_ptr.99" = type { %"class.std::__shared_ptr.100" }
%"class.std::__shared_ptr.100" = type { ptr, %"class.std::__shared_count" }

; Function Attrs: mustprogress uwtable
define linkonce_odr void @_ZN7rocksdb19CompositeEnvWrapperC2EPNS_3EnvERKSt10shared_ptrINS_10FileSystemEE(ptr noundef nonnull align 8 dereferenceable(96) %0, ptr noundef %1, ptr noundef nonnull align 8 dereferenceable(16) %2) unnamed_addr #4 comdat align 2 {
  %4 = alloca ptr, align 8
  %5 = alloca ptr, align 8
  %6 = alloca ptr, align 8
  store ptr %0, ptr %4, align 8, !tbaa !217
  store ptr %1, ptr %5, align 8, !tbaa !215
  store ptr %2, ptr %6, align 8, !tbaa !195
  %7 = load ptr, ptr %4, align 8
  %8 = load ptr, ptr %5, align 8, !tbaa !215
  %9 = load ptr, ptr %6, align 8, !tbaa !195
  %10 = load ptr, ptr %5, align 8, !tbaa !215
  %11 = call noundef nonnull align 8 dereferenceable(16) ptr @_ZNK7rocksdb3Env14GetSystemClockEv(ptr noundef nonnull align 8 dereferenceable(72) %10)
  call void @_ZN7rocksdb19CompositeEnvWrapperC2EPNS_3EnvERKSt10shared_ptrINS_10FileSystemEERKS3_INS_11SystemClockEE(ptr noundef nonnull align 8 dereferenceable(96) %7, ptr noundef %8, ptr noundef nonnull align 8 dereferenceable(16) %9, ptr noundef nonnull align 8 dereferenceable(16) %11)
  ret void
}

; Function Attrs: mustprogress uwtable
define noundef ptr @_ZN7rocksdb15NewEncryptedEnvEPNS_3EnvERKSt10shared_ptrINS_18EncryptionProviderEE(ptr noundef %0, ptr noundef nonnull align 8 dereferenceable(16) %1) #4 personality ptr @__gxx_personality_v0 {
  %3 = alloca ptr, align 8
  %4 = alloca ptr, align 8
  %5 = alloca %"class.std::shared_ptr.99", align 8
  %6 = alloca ptr, align 8
  %7 = alloca i32, align 4
  %8 = alloca i1, align 1
  store ptr %0, ptr %3, align 8, !tbaa !215
  store ptr %1, ptr %4, align 8, !tbaa !11
  %9 = call noalias noundef nonnull ptr @_Znwm(i64 noundef 96) #24
  store i1 true, ptr %8, align 1
  %10 = load ptr, ptr %3, align 8, !tbaa !215
  call void @llvm.lifetime.start.p0(i64 16, ptr %5) #3
  %11 = load ptr, ptr %3, align 8, !tbaa !215
  %12 = invoke noundef nonnull align 8 dereferenceable(16) ptr @_ZNK7rocksdb3Env13GetFileSystemEv(ptr noundef nonnull align 8 dereferenceable(72) %11)
          to label %13 unwind label %17

13:                                               ; preds = %2
  %14 = load ptr, ptr %4, align 8, !tbaa !11
  invoke void @_ZN7rocksdb14NewEncryptedFSERKSt10shared_ptrINS_10FileSystemEERKS0_INS_18EncryptionProviderEE(ptr dead_on_unwind writable sret(%"class.std::shared_ptr.99") align 8 %5, ptr noundef nonnull align 8 dereferenceable(16) %12, ptr noundef nonnull align 8 dereferenceable(16) %14)
          to label %15 unwind label %17

15:                                               ; preds = %13
  invoke void @_ZN7rocksdb19CompositeEnvWrapperC2EPNS_3EnvERKSt10shared_ptrINS_10FileSystemEE(ptr noundef nonnull align 8 dereferenceable(96) %9, ptr noundef %10, ptr noundef nonnull align 8 dereferenceable(16) %5)
          to label %16 unwind label %21

16:                                               ; preds = %15
  store i1 false, ptr %8, align 1
  call void @_ZNSt12__shared_ptrIN7rocksdb10FileSystemELN9__gnu_cxx12_Lock_policyE2EED2Ev(ptr noundef nonnull align 8 dereferenceable(16) %5) #3
  call void @llvm.lifetime.end.p0(i64 16, ptr %5) #3
  ret ptr %9

17:                                               ; preds = %13, %2
  %18 = landingpad { ptr, i32 }
          cleanup
  %19 = extractvalue { ptr, i32 } %18, 0
  store ptr %19, ptr %6, align 8
  %20 = extractvalue { ptr, i32 } %18, 1
  store i32 %20, ptr %7, align 4
  br label %25

21:                                               ; preds = %15
  %22 = landingpad { ptr, i32 }
          cleanup
  %23 = extractvalue { ptr, i32 } %22, 0
  store ptr %23, ptr %6, align 8
  %24 = extractvalue { ptr, i32 } %22, 1
  store i32 %24, ptr %7, align 4
  call void @_ZNSt12__shared_ptrIN7rocksdb10FileSystemELN9__gnu_cxx12_Lock_policyE2EED2Ev(ptr noundef nonnull align 8 dereferenceable(16) %5) #3
  br label %25

25:                                               ; preds = %21, %17
  call void @llvm.lifetime.end.p0(i64 16, ptr %5) #3
  %26 = load i1, ptr %8, align 1
  br i1 %26, label %27, label %28

27:                                               ; preds = %25
  call void @_ZdlPvm(ptr noundef %9, i64 noundef 96) #25
  br label %28

28:                                               ; preds = %27, %25
  br label %29

29:                                               ; preds = %28
  %30 = load ptr, ptr %6, align 8
  %31 = load i32, ptr %7, align 4
  %32 = insertvalue { ptr, i32 } poison, ptr %30, 0
  %33 = insertvalue { ptr, i32 } %32, i32 %31, 1
  resume { ptr, i32 } %33
}