; Function Attrs: mustprogress uwtable
define noundef nonnull ptr @_ZN7rocksdb15NewEncryptedEnvEPNS_3EnvERKSt10shared_ptrINS_18EncryptionProviderEE(ptr noundef %0, ptr noundef nonnull readonly align 8 captures(none) dereferenceable(16) %1) local_unnamed_addr #3 personality ptr @__gxx_personality_v0 {
  %3 = alloca %"class.std::shared_ptr.99", align 8
  %4 = tail call noalias noundef nonnull dereferenceable(96) ptr @_Znwm(i64 noundef 96) #29
  call void @llvm.lifetime.start.p0(i64 16, ptr nonnull %3) #31
  %5 = invoke noundef nonnull align 8 dereferenceable(16) ptr @_ZNK7rocksdb3Env13GetFileSystemEv(ptr noundef nonnull align 8 dereferenceable(72) %0)
          to label %6 unwind label %32

6:                                                ; preds = %2
  invoke void @_ZN7rocksdb14NewEncryptedFSERKSt10shared_ptrINS_10FileSystemEERKS0_INS_18EncryptionProviderEE(ptr dead_on_unwind nonnull writable sret(%"class.std::shared_ptr.99") align 8 %3, ptr noundef nonnull align 8 dereferenceable(16) %5, ptr noundef nonnull align 8 dereferenceable(16) %1)
          to label %7 unwind label %32

7:                                                ; preds = %6
  %8 = invoke noundef nonnull align 8 dereferenceable(16) ptr @_ZNK7rocksdb3Env14GetSystemClockEv(ptr noundef nonnull align 8 dereferenceable(72) %0)
          to label %.noexc unwind label %34

.noexc:                                           ; preds = %7
  invoke void @_ZN7rocksdb19CompositeEnvWrapperC2EPNS_3EnvERKSt10shared_ptrINS_10FileSystemEERKS3_INS_11SystemClockEE(ptr noundef nonnull align 8 dereferenceable(96) %4, ptr noundef nonnull %0, ptr noundef nonnull align 8 dereferenceable(16) %3, ptr noundef nonnull align 8 dereferenceable(16) %8)
          to label %_ZN7rocksdb19CompositeEnvWrapperC2EPNS_3EnvERKSt10shared_ptrINS_10FileSystemEE.exit unwind label %34

_ZN7rocksdb19CompositeEnvWrapperC2EPNS_3EnvERKSt10shared_ptrINS_10FileSystemEE.exit: ; preds = %.noexc
  %9 = getelementptr inbounds nuw i8, ptr %3, i64 8
  %10 = load ptr, ptr %9, align 8, !tbaa !21
  %.not.i.i = icmp eq ptr %10, null
  br i1 %.not.i.i, label %_ZNSt12__shared_ptrIN7rocksdb10FileSystemELN9__gnu_cxx12_Lock_policyE2EED2Ev.exit, label %11

11:                                               ; preds = %_ZN7rocksdb19CompositeEnvWrapperC2EPNS_3EnvERKSt10shared_ptrINS_10FileSystemEE.exit
  %12 = getelementptr inbounds nuw i8, ptr %10, i64 8
  %13 = load atomic i64, ptr %12 acquire, align 8
  %14 = icmp eq i64 %13, 4294967297
  %15 = trunc i64 %13 to i32
  br i1 %14, label %16, label %24

16:                                               ; preds = %11
  store i32 0, ptr %12, align 8, !tbaa !7
  %17 = getelementptr inbounds nuw i8, ptr %10, i64 12
  store i32 0, ptr %17, align 4, !tbaa !12
  %18 = load ptr, ptr %10, align 8, !tbaa !13
  %19 = getelementptr inbounds nuw i8, ptr %18, i64 16
  %20 = load ptr, ptr %19, align 8
  call void %20(ptr noundef nonnull align 8 dereferenceable(16) %10) #31
  %21 = load ptr, ptr %10, align 8, !tbaa !13
  %22 = getelementptr inbounds nuw i8, ptr %21, i64 24
  %23 = load ptr, ptr %22, align 8
  call void %23(ptr noundef nonnull align 8 dereferenceable(16) %10) #31
  br label %_ZNSt12__shared_ptrIN7rocksdb10FileSystemELN9__gnu_cxx12_Lock_policyE2EED2Ev.exit

24:                                               ; preds = %11
  %25 = load i8, ptr @__libc_single_threaded, align 1, !tbaa !85
  %.not.i.i.i = icmp eq i8 %25, 0
  br i1 %.not.i.i.i, label %28, label %26

26:                                               ; preds = %24
  %27 = add nsw i32 %15, -1
  store i32 %27, ptr %12, align 4, !tbaa !197
  br label %_ZN9__gnu_cxx27__exchange_and_add_dispatchEPii.exit.i.i.i

28:                                               ; preds = %24
  %29 = atomicrmw volatile add ptr %12, i32 -1 acq_rel, align 4
  br label %_ZN9__gnu_cxx27__exchange_and_add_dispatchEPii.exit.i.i.i

_ZN9__gnu_cxx27__exchange_and_add_dispatchEPii.exit.i.i.i: ; preds = %28, %26
  %.0.i.i.i.i = phi i32 [ %15, %26 ], [ %29, %28 ]
  %30 = icmp eq i32 %.0.i.i.i.i, 1
  br i1 %30, label %31, label %_ZNSt12__shared_ptrIN7rocksdb10FileSystemELN9__gnu_cxx12_Lock_policyE2EED2Ev.exit, !prof !198

31:                                               ; preds = %_ZN9__gnu_cxx27__exchange_and_add_dispatchEPii.exit.i.i.i
  call void @_ZNSt16_Sp_counted_baseILN9__gnu_cxx12_Lock_policyE2EE24_M_release_last_use_coldEv(ptr noundef nonnull align 8 dereferenceable(16) %10) #31
  br label %_ZNSt12__shared_ptrIN7rocksdb10FileSystemELN9__gnu_cxx12_Lock_policyE2EED2Ev.exit

_ZNSt12__shared_ptrIN7rocksdb10FileSystemELN9__gnu_cxx12_Lock_policyE2EED2Ev.exit: ; preds = %_ZN7rocksdb19CompositeEnvWrapperC2EPNS_3EnvERKSt10shared_ptrINS_10FileSystemEE.exit, %16, %_ZN9__gnu_cxx27__exchange_and_add_dispatchEPii.exit.i.i.i, %31
  call void @llvm.lifetime.end.p0(i64 16, ptr nonnull %3) #31
  ret ptr %4

32:                                               ; preds = %6, %2
  %33 = landingpad { ptr, i32 }
          cleanup
  br label %36

34:                                               ; preds = %.noexc, %7
  %35 = landingpad { ptr, i32 }
          cleanup
  call void @_ZNSt12__shared_ptrIN7rocksdb10FileSystemELN9__gnu_cxx12_Lock_policyE2EED2Ev(ptr noundef nonnull align 8 dereferenceable(16) %3) #31
  br label %36

36:                                               ; preds = %34, %32
  %.pn = phi { ptr, i32 } [ %35, %34 ], [ %33, %32 ]
  call void @llvm.lifetime.end.p0(i64 16, ptr nonnull %3) #31
  call void @_ZdlPvm(ptr noundef nonnull %4, i64 noundef 96) #30
  resume { ptr, i32 } %.pn
}